target datalayout = "e-m:e-p270:32:32-p271:32:32-p272:64:64-i64:64-i128:128-f80:128-n8:16:32:64-S128"
target triple = "x86_64-pc-linux-gnu"

%struct.Aig_Man_t_ = type { ptr, ptr, ptr, ptr, ptr, ptr, ptr, %struct.Aig_Obj_t_, i32, i32, i32, i32, i32, i32, [7 x i32], i32, ptr, i32, ptr, i32, ptr, i32, i32, i32, ptr, i32, i32, i32, i32, i32, ptr, ptr, i32, ptr, ptr, i32, ptr, ptr, i32, i32, i32, ptr, ptr, ptr, ptr, ptr, ptr, ptr, ptr, ptr, ptr, ptr, ptr, ptr, ptr, i32, ptr, ptr, ptr, ptr, i32, i64, i64, i64, ptr, ptr }
%struct.Aig_Obj_t_ = type { %union.anon, ptr, ptr, i64, i32, i32, %union.anon.0 }
%union.anon = type { ptr }
%union.anon.0 = type { ptr }
%struct.Cnf_Dat_t_ = type { ptr, i32, i32, i32, ptr, ptr, ptr, ptr, ptr, ptr }
%struct.Vec_Ptr_t_ = type { i32, i32, ptr }

; Function Attrs: inlinehint nounwind uwtable
define internal i32 @toLitCond(i32 noundef %0, i32 noundef %1) #5 {
  %3 = alloca i32, align 4
  %4 = alloca i32, align 4
  store i32 %0, ptr %3, align 4, !tbaa !20
  store i32 %1, ptr %4, align 4, !tbaa !20
  %5 = load i32, ptr %3, align 4, !tbaa !20
  %6 = load i32, ptr %3, align 4, !tbaa !20
  %7 = add nsw i32 %5, %6
  %8 = load i32, ptr %4, align 4, !tbaa !20
  %9 = icmp ne i32 %8, 0
  %10 = zext i1 %9 to i32
  %11 = add nsw i32 %7, %10
  ret i32 %11
}

; Function Attrs: inlinehint nounwind uwtable
define internal ptr @Vec_PtrEntry(ptr noundef %0, i32 noundef %1) #5 {
  %3 = alloca ptr, align 8
  %4 = alloca i32, align 4
  store ptr %0, ptr %3, align 8, !tbaa !50
  store i32 %1, ptr %4, align 4, !tbaa !20
  %5 = load ptr, ptr %3, align 8, !tbaa !50
  %6 = getelementptr inbounds nuw %struct.Vec_Ptr_t_, ptr %5, i32 0, i32 2
  %7 = load ptr, ptr %6, align 8, !tbaa !53
  %8 = load i32, ptr %4, align 4, !tbaa !20
  %9 = sext i32 %8 to i64
  %10 = getelementptr inbounds ptr, ptr %7, i64 %9
  %11 = load ptr, ptr %10, align 8, !tbaa !54
  ret ptr %11
}

; Function Attrs: inlinehint nounwind uwtable
define internal i32 @Vec_PtrSize(ptr noundef %0) #5 {
  %2 = alloca ptr, align 8
  store ptr %0, ptr %2, align 8, !tbaa !50
  %3 = load ptr, ptr %2, align 8, !tbaa !50
  %4 = getelementptr inbounds nuw %struct.Vec_Ptr_t_, ptr %3, i32 0, i32 1
  %5 = load i32, ptr %4, align 4, !tbaa !51
  ret i32 %5
}

; Function Attrs: inlinehint nounwind uwtable
define internal i32 @Aig_ManCoNum(ptr noundef %0) #5 {
  %2 = alloca ptr, align 8
  store ptr %0, ptr %2, align 8, !tbaa !34
  %3 = load ptr, ptr %2, align 8, !tbaa !34
  %4 = getelementptr inbounds nuw %struct.Aig_Man_t_, ptr %3, i32 0, i32 14
  %5 = getelementptr inbounds [7 x i32], ptr %4, i64 0, i64 3
  %6 = load i32, ptr %5, align 4, !tbaa !20
  ret i32 %6
}

; Function Attrs: nounwind uwtable
define i32 @Cnf_DataWriteOrClause(ptr noundef %0, ptr noundef %1) #0 {
  %3 = alloca i32, align 4
  %4 = alloca ptr, align 8
  %5 = alloca ptr, align 8
  %6 = alloca ptr, align 8
  %7 = alloca ptr, align 8
  %8 = alloca i32, align 4
  %9 = alloca ptr, align 8
  %10 = alloca i32, align 4
  store ptr %0, ptr %4, align 8, !tbaa !54
  store ptr %1, ptr %5, align 8, !tbaa !32
  call void @llvm.lifetime.start.p0(i64 8, ptr %6) #11
  %11 = load ptr, ptr %4, align 8, !tbaa !54
  store ptr %11, ptr %6, align 8, !tbaa !96
  call void @llvm.lifetime.start.p0(i64 8, ptr %7) #11
  call void @llvm.lifetime.start.p0(i64 4, ptr %8) #11
  call void @llvm.lifetime.start.p0(i64 8, ptr %9) #11
  %12 = load ptr, ptr %5, align 8, !tbaa !32
  %13 = getelementptr inbounds nuw %struct.Cnf_Dat_t_, ptr %12, i32 0, i32 0
  %14 = load ptr, ptr %13, align 8, !tbaa !55
  %15 = call i32 @Aig_ManCoNum(ptr noundef %14)
  %16 = sext i32 %15 to i64
  %17 = mul i64 4, %16
  %18 = call noalias ptr @malloc(i64 noundef %17) #12
  store ptr %18, ptr %9, align 8, !tbaa !18
  store i32 0, ptr %8, align 4, !tbaa !20
  br label %19

19:                                               ; preds = %53, %2
  %20 = load i32, ptr %8, align 4, !tbaa !20
  %21 = load ptr, ptr %5, align 8, !tbaa !32
  %22 = getelementptr inbounds nuw %struct.Cnf_Dat_t_, ptr %21, i32 0, i32 0
  %23 = load ptr, ptr %22, align 8, !tbaa !55
  %24 = getelementptr inbounds nuw %struct.Aig_Man_t_, ptr %23, i32 0, i32 3
  %25 = load ptr, ptr %24, align 8, !tbaa !106
  %26 = call i32 @Vec_PtrSize(ptr noundef %25)
  %27 = icmp slt i32 %20, %26
  br i1 %27, label %28, label %36

28:                                               ; preds = %19
  %29 = load ptr, ptr %5, align 8, !tbaa !32
  %30 = getelementptr inbounds nuw %struct.Cnf_Dat_t_, ptr %29, i32 0, i32 0
  %31 = load ptr, ptr %30, align 8, !tbaa !55
  %32 = getelementptr inbounds nuw %struct.Aig_Man_t_, ptr %31, i32 0, i32 3
  %33 = load ptr, ptr %32, align 8, !tbaa !106
  %34 = load i32, ptr %8, align 4, !tbaa !20
  %35 = call ptr @Vec_PtrEntry(ptr noundef %33, i32 noundef %34)
  store ptr %35, ptr %7, align 8, !tbaa !44
  br label %36

36:                                               ; preds = %28, %19
  %37 = phi i1 [ false, %19 ], [ true, %28 ]
  br i1 %37, label %38, label %56

38:                                               ; preds = %36
  %39 = load ptr, ptr %5, align 8, !tbaa !32
  %40 = getelementptr inbounds nuw %struct.Cnf_Dat_t_, ptr %39, i32 0, i32 5
  %41 = load ptr, ptr %40, align 8, !tbaa !45
  %42 = load ptr, ptr %7, align 8, !tbaa !44
  %43 = getelementptr inbounds nuw %struct.Aig_Obj_t_, ptr %42, i32 0, i32 5
  %44 = load i32, ptr %43, align 4, !tbaa !48
  %45 = sext i32 %44 to i64
  %46 = getelementptr inbounds i32, ptr %41, i64 %45
  %47 = load i32, ptr %46, align 4, !tbaa !20
  %48 = call i32 @toLitCond(i32 noundef %47, i32 noundef 0)
  %49 = load ptr, ptr %9, align 8, !tbaa !18
  %50 = load i32, ptr %8, align 4, !tbaa !20
  %51 = sext i32 %50 to i64
  %52 = getelementptr inbounds i32, ptr %49, i64 %51
  store i32 %48, ptr %52, align 4, !tbaa !20
  br label %53

53:                                               ; preds = %38
  %54 = load i32, ptr %8, align 4, !tbaa !20
  %55 = add nsw i32 %54, 1
  store i32 %55, ptr %8, align 4, !tbaa !20
  br label %19, !llvm.loop !116

56:                                               ; preds = %36
  %57 = load ptr, ptr %6, align 8, !tbaa !96
  %58 = load ptr, ptr %9, align 8, !tbaa !18
  %59 = load ptr, ptr %9, align 8, !tbaa !18
  %60 = load ptr, ptr %5, align 8, !tbaa !32
  %61 = getelementptr inbounds nuw %struct.Cnf_Dat_t_, ptr %60, i32 0, i32 0
  %62 = load ptr, ptr %61, align 8, !tbaa !55
  %63 = call i32 @Aig_ManCoNum(ptr noundef %62)
  %64 = sext i32 %63 to i64
  %65 = getelementptr inbounds i32, ptr %59, i64 %64
  %66 = call i32 @sat_solver_addclause(ptr noundef %57, ptr noundef %58, ptr noundef %65)
  %67 = icmp ne i32 %66, 0
  br i1 %67, label %75, label %68

68:                                               ; preds = %56
  %69 = load ptr, ptr %9, align 8, !tbaa !18
  %70 = icmp ne ptr %69, null
  br i1 %70, label %71, label %73

71:                                               ; preds = %68
  %72 = load ptr, ptr %9, align 8, !tbaa !18
  call void @free(ptr noundef %72) #11
  store ptr null, ptr %9, align 8, !tbaa !18
  br label %74

73:                                               ; preds = %68
  br label %74

74:                                               ; preds = %73, %71
  store i32 0, ptr %3, align 4
  store i32 1, ptr %10, align 4
  br label %82

75:                                               ; preds = %56
  %76 = load ptr, ptr %9, align 8, !tbaa !18
  %77 = icmp ne ptr %76, null
  br i1 %77, label %78, label %80

78:                                               ; preds = %75
  %79 = load ptr, ptr %9, align 8, !tbaa !18
  call void @free(ptr noundef %79) #11
  store ptr null, ptr %9, align 8, !tbaa !18
  br label %81

80:                                               ; preds = %75
  br label %81

81:                                               ; preds = %80, %78
  store i32 1, ptr %3, align 4
  store i32 1, ptr %10, align 4
  br label %82

82:                                               ; preds = %81, %74
  call void @llvm.lifetime.end.p0(i64 8, ptr %9) #11
  call void @llvm.lifetime.end.p0(i64 4, ptr %8) #11
  call void @llvm.lifetime.end.p0(i64 8, ptr %7) #11
  call void @llvm.lifetime.end.p0(i64 8, ptr %6) #11
  %83 = load i32, ptr %3, align 4
  ret i32 %83
}