; Function Attrs: nounwind uwtable
define range(i32 0, 2) i32 @Cnf_DataWriteOrClause(ptr noundef %0, ptr noundef readonly captures(none) %1) local_unnamed_addr #0 {
  %3 = load ptr, ptr %1, align 8, !tbaa !47
  %4 = getelementptr i8, ptr %3, i64 140
  %.val24 = load i32, ptr %4, align 4, !tbaa !28
  %5 = sext i32 %.val24 to i64
  %6 = shl nsw i64 %5, 2
  %7 = tail call noalias ptr @malloc(i64 noundef %6) #17
  %8 = getelementptr inbounds nuw i8, ptr %3, i64 24
  %9 = load ptr, ptr %8, align 8, !tbaa !90
  %10 = getelementptr i8, ptr %9, i64 4
  %.val26 = load i32, ptr %10, align 4, !tbaa !38
  %11 = icmp sgt i32 %.val26, 0
  br i1 %11, label %.lr.ph, label %.critedge

.lr.ph:                                           ; preds = %2
  %12 = getelementptr i8, ptr %9, i64 8
  %.val23 = load ptr, ptr %12, align 8, !tbaa !40
  %13 = getelementptr inbounds nuw i8, ptr %1, i64 32
  %14 = load ptr, ptr %13, align 8, !tbaa !42
  %15 = zext nneg i32 %.val26 to i64
  br label %16

16:                                               ; preds = %.lr.ph, %16
  %indvars.iv = phi i64 [ 0, %.lr.ph ], [ %indvars.iv.next, %16 ]
  %17 = getelementptr inbounds nuw ptr, ptr %.val23, i64 %indvars.iv
  %18 = load ptr, ptr %17, align 8, !tbaa !41
  %19 = getelementptr inbounds nuw i8, ptr %18, i64 36
  %20 = load i32, ptr %19, align 4, !tbaa !45
  %21 = sext i32 %20 to i64
  %22 = getelementptr inbounds i32, ptr %14, i64 %21
  %23 = load i32, ptr %22, align 4, !tbaa !28
  %24 = shl nsw i32 %23, 1
  %25 = getelementptr inbounds nuw i32, ptr %7, i64 %indvars.iv
  store i32 %24, ptr %25, align 4, !tbaa !28
  %indvars.iv.next = add nuw nsw i64 %indvars.iv, 1
  %26 = icmp samesign ult i64 %indvars.iv.next, %15
  br i1 %26, label %16, label %.critedge, !llvm.loop !103

.critedge:                                        ; preds = %16, %2
  %27 = getelementptr inbounds i32, ptr %7, i64 %5
  %28 = tail call i32 @sat_solver_addclause(ptr noundef %0, ptr noundef %7, ptr noundef %27) #16
  %.not21 = icmp eq ptr %7, null
  br i1 %.not21, label %29, label %.sink.split

.sink.split:                                      ; preds = %.critedge
  tail call void @free(ptr noundef nonnull %7) #16
  br label %29

29:                                               ; preds = %.critedge, %.sink.split
  %.not = icmp ne i32 %28, 0
  %. = zext i1 %.not to i32
  ret i32 %.
}